target datalayout = "e-m:e-p270:32:32-p271:32:32-p272:64:64-i64:64-i128:128-f80:128-n8:16:32:64-S128"
target triple = "x86_64-pc-linux-gnu"

@.str.3 = private unnamed_addr constant [2 x i8] c"\0A\00", align 1
@.str.4 = private unnamed_addr constant [27 x i8] c"    synth_ice40 [options]\0A\00", align 1
@.str.5 = private unnamed_addr constant [46 x i8] c"This command runs synthesis for iCE40 FPGAs.\0A\00", align 1
@.str.6 = private unnamed_addr constant [29 x i8] c"    -device < hx | lp | u >\0A\00", align 1
@.str.7 = private unnamed_addr constant [75 x i8] c"        relevant only for '-abc9' flow, optimise timing for the specified\0A\00", align 1
@.str.8 = private unnamed_addr constant [29 x i8] c"        device. default: hx\0A\00", align 1
@.str.9 = private unnamed_addr constant [19 x i8] c"    -top <module>\0A\00", align 1
@.str.10 = private unnamed_addr constant [48 x i8] c"        use the specified module as top module\0A\00", align 1
@.str.11 = private unnamed_addr constant [18 x i8] c"    -blif <file>\0A\00", align 1
@.str.12 = private unnamed_addr constant [80 x i8] c"        write the design to the specified BLIF file. writing of an output file\0A\00", align 1
@.str.13 = private unnamed_addr constant [56 x i8] c"        is omitted if this parameter is not specified.\0A\00", align 1
@.str.14 = private unnamed_addr constant [18 x i8] c"    -edif <file>\0A\00", align 1
@.str.15 = private unnamed_addr constant [80 x i8] c"        write the design to the specified EDIF file. writing of an output file\0A\00", align 1
@.str.16 = private unnamed_addr constant [18 x i8] c"    -json <file>\0A\00", align 1
@.str.17 = private unnamed_addr constant [80 x i8] c"        write the design to the specified JSON file. writing of an output file\0A\00", align 1
@.str.18 = private unnamed_addr constant [34 x i8] c"    -run <from_label>:<to_label>\0A\00", align 1
@.str.19 = private unnamed_addr constant [72 x i8] c"        only run the commands between the labels (see below). an empty\0A\00", align 1
@.str.20 = private unnamed_addr constant [68 x i8] c"        from label is synonymous to 'begin', and empty to label is\0A\00", align 1
@.str.21 = private unnamed_addr constant [52 x i8] c"        synonymous to the end of the command list.\0A\00", align 1
@.str.22 = private unnamed_addr constant [16 x i8] c"    -noflatten\0A\00", align 1
@.str.23 = private unnamed_addr constant [48 x i8] c"        do not flatten design before synthesis\0A\00", align 1
@.str.24 = private unnamed_addr constant [10 x i8] c"    -dff\0A\00", align 1
@.str.25 = private unnamed_addr constant [43 x i8] c"        run 'abc'/'abc9' with -dff option\0A\00", align 1
@.str.26 = private unnamed_addr constant [13 x i8] c"    -retime\0A\00", align 1
@.str.27 = private unnamed_addr constant [44 x i8] c"        run 'abc' with '-dff -D 1' options\0A\00", align 1
@.str.28 = private unnamed_addr constant [14 x i8] c"    -nocarry\0A\00", align 1
@.str.29 = private unnamed_addr constant [53 x i8] c"        do not use SB_CARRY cells in output netlist\0A\00", align 1
@.str.30 = private unnamed_addr constant [13 x i8] c"    -nodffe\0A\00", align 1
@.str.31 = private unnamed_addr constant [53 x i8] c"        do not use SB_DFFE* cells in output netlist\0A\00", align 1
@.str.32 = private unnamed_addr constant [35 x i8] c"    -dffe_min_ce_use <min_ce_use>\0A\00", align 1
@.str.33 = private unnamed_addr constant [77 x i8] c"        do not use SB_DFFE* cells if the resulting CE line would go to less\0A\00", align 1
@.str.34 = private unnamed_addr constant [52 x i8] c"        than min_ce_use SB_DFFE* in output netlist\0A\00", align 1
@.str.35 = private unnamed_addr constant [13 x i8] c"    -nobram\0A\00", align 1
@.str.36 = private unnamed_addr constant [57 x i8] c"        do not use SB_RAM40_4K* cells in output netlist\0A\00", align 1
@.str.37 = private unnamed_addr constant [12 x i8] c"    -spram\0A\00", align 1
@.str.38 = private unnamed_addr constant [53 x i8] c"        enable automatic inference of SB_SPRAM256KA\0A\00", align 1
@.str.39 = private unnamed_addr constant [10 x i8] c"    -dsp\0A\00", align 1
@.str.40 = private unnamed_addr constant [60 x i8] c"        use iCE40 UltraPlus DSP cells for large arithmetic\0A\00", align 1
@.str.41 = private unnamed_addr constant [12 x i8] c"    -noabc\0A\00", align 1
@.str.42 = private unnamed_addr constant [59 x i8] c"        use built-in Yosys LUT techmapping instead of abc\0A\00", align 1
@.str.43 = private unnamed_addr constant [11 x i8] c"    -abc2\0A\00", align 1
@.str.44 = private unnamed_addr constant [69 x i8] c"        run two passes of 'abc' for slightly improved logic density\0A\00", align 1
@.str.45 = private unnamed_addr constant [10 x i8] c"    -vpr\0A\00", align 1
@.str.46 = private unnamed_addr constant [69 x i8] c"        generate an output netlist (and BLIF file) suitable for VPR\0A\00", align 1
@.str.47 = private unnamed_addr constant [55 x i8] c"        (this feature is experimental and incomplete)\0A\00", align 1
@.str.48 = private unnamed_addr constant [13 x i8] c"    -noabc9\0A\00", align 1
@.str.49 = private unnamed_addr constant [38 x i8] c"        disable use of new ABC9 flow\0A\00", align 1
@.str.50 = private unnamed_addr constant [14 x i8] c"    -flowmap\0A\00", align 1
@.str.51 = private unnamed_addr constant [67 x i8] c"        use FlowMap LUT techmapping instead of abc (EXPERIMENTAL)\0A\00", align 1
@.str.52 = private unnamed_addr constant [18 x i8] c"    -no-rw-check\0A\00", align 1
@.str.53 = private unnamed_addr constant [72 x i8] c"        marks all recognized read ports as \22return don't-care value on\0A\00", align 1
@.str.54 = private unnamed_addr constant [71 x i8] c"        read/write collision\22 (same result as setting the no_rw_check\0A\00", align 1
@.str.55 = private unnamed_addr constant [37 x i8] c"        attribute on all memories).\0A\00", align 1
@.str.56 = private unnamed_addr constant [64 x i8] c"The following commands are executed by this synthesis command:\0A\00", align 1

; Function Attrs: mustprogress uwtable
define internal void @_ZN12_GLOBAL__N_114SynthIce40Pass4helpEv(ptr noundef nonnull align 8 dereferenceable(364) %0) unnamed_addr #4 align 2 {
  %2 = alloca ptr, align 8
  store ptr %0, ptr %2, align 8
  %3 = load ptr, ptr %2, align 8
  call void (ptr, ...) @_ZN5Yosys3logEPKcz(ptr noundef @.str.3)
  call void (ptr, ...) @_ZN5Yosys3logEPKcz(ptr noundef @.str.4)
  call void (ptr, ...) @_ZN5Yosys3logEPKcz(ptr noundef @.str.3)
  call void (ptr, ...) @_ZN5Yosys3logEPKcz(ptr noundef @.str.5)
  call void (ptr, ...) @_ZN5Yosys3logEPKcz(ptr noundef @.str.3)
  call void (ptr, ...) @_ZN5Yosys3logEPKcz(ptr noundef @.str.6)
  call void (ptr, ...) @_ZN5Yosys3logEPKcz(ptr noundef @.str.7)
  call void (ptr, ...) @_ZN5Yosys3logEPKcz(ptr noundef @.str.8)
  call void (ptr, ...) @_ZN5Yosys3logEPKcz(ptr noundef @.str.3)
  call void (ptr, ...) @_ZN5Yosys3logEPKcz(ptr noundef @.str.9)
  call void (ptr, ...) @_ZN5Yosys3logEPKcz(ptr noundef @.str.10)
  call void (ptr, ...) @_ZN5Yosys3logEPKcz(ptr noundef @.str.3)
  call void (ptr, ...) @_ZN5Yosys3logEPKcz(ptr noundef @.str.11)
  call void (ptr, ...) @_ZN5Yosys3logEPKcz(ptr noundef @.str.12)
  call void (ptr, ...) @_ZN5Yosys3logEPKcz(ptr noundef @.str.13)
  call void (ptr, ...) @_ZN5Yosys3logEPKcz(ptr noundef @.str.3)
  call void (ptr, ...) @_ZN5Yosys3logEPKcz(ptr noundef @.str.14)
  call void (ptr, ...) @_ZN5Yosys3logEPKcz(ptr noundef @.str.15)
  call void (ptr, ...) @_ZN5Yosys3logEPKcz(ptr noundef @.str.13)
  call void (ptr, ...) @_ZN5Yosys3logEPKcz(ptr noundef @.str.3)
  call void (ptr, ...) @_ZN5Yosys3logEPKcz(ptr noundef @.str.16)
  call void (ptr, ...) @_ZN5Yosys3logEPKcz(ptr noundef @.str.17)
  call void (ptr, ...) @_ZN5Yosys3logEPKcz(ptr noundef @.str.13)
  call void (ptr, ...) @_ZN5Yosys3logEPKcz(ptr noundef @.str.3)
  call void (ptr, ...) @_ZN5Yosys3logEPKcz(ptr noundef @.str.18)
  call void (ptr, ...) @_ZN5Yosys3logEPKcz(ptr noundef @.str.19)
  call void (ptr, ...) @_ZN5Yosys3logEPKcz(ptr noundef @.str.20)
  call void (ptr, ...) @_ZN5Yosys3logEPKcz(ptr noundef @.str.21)
  call void (ptr, ...) @_ZN5Yosys3logEPKcz(ptr noundef @.str.3)
  call void (ptr, ...) @_ZN5Yosys3logEPKcz(ptr noundef @.str.22)
  call void (ptr, ...) @_ZN5Yosys3logEPKcz(ptr noundef @.str.23)
  call void (ptr, ...) @_ZN5Yosys3logEPKcz(ptr noundef @.str.3)
  call void (ptr, ...) @_ZN5Yosys3logEPKcz(ptr noundef @.str.24)
  call void (ptr, ...) @_ZN5Yosys3logEPKcz(ptr noundef @.str.25)
  call void (ptr, ...) @_ZN5Yosys3logEPKcz(ptr noundef @.str.3)
  call void (ptr, ...) @_ZN5Yosys3logEPKcz(ptr noundef @.str.26)
  call void (ptr, ...) @_ZN5Yosys3logEPKcz(ptr noundef @.str.27)
  call void (ptr, ...) @_ZN5Yosys3logEPKcz(ptr noundef @.str.3)
  call void (ptr, ...) @_ZN5Yosys3logEPKcz(ptr noundef @.str.28)
  call void (ptr, ...) @_ZN5Yosys3logEPKcz(ptr noundef @.str.29)
  call void (ptr, ...) @_ZN5Yosys3logEPKcz(ptr noundef @.str.3)
  call void (ptr, ...) @_ZN5Yosys3logEPKcz(ptr noundef @.str.30)
  call void (ptr, ...) @_ZN5Yosys3logEPKcz(ptr noundef @.str.31)
  call void (ptr, ...) @_ZN5Yosys3logEPKcz(ptr noundef @.str.3)
  call void (ptr, ...) @_ZN5Yosys3logEPKcz(ptr noundef @.str.32)
  call void (ptr, ...) @_ZN5Yosys3logEPKcz(ptr noundef @.str.33)
  call void (ptr, ...) @_ZN5Yosys3logEPKcz(ptr noundef @.str.34)
  call void (ptr, ...) @_ZN5Yosys3logEPKcz(ptr noundef @.str.3)
  call void (ptr, ...) @_ZN5Yosys3logEPKcz(ptr noundef @.str.35)
  call void (ptr, ...) @_ZN5Yosys3logEPKcz(ptr noundef @.str.36)
  call void (ptr, ...) @_ZN5Yosys3logEPKcz(ptr noundef @.str.3)
  call void (ptr, ...) @_ZN5Yosys3logEPKcz(ptr noundef @.str.37)
  call void (ptr, ...) @_ZN5Yosys3logEPKcz(ptr noundef @.str.38)
  call void (ptr, ...) @_ZN5Yosys3logEPKcz(ptr noundef @.str.3)
  call void (ptr, ...) @_ZN5Yosys3logEPKcz(ptr noundef @.str.39)
  call void (ptr, ...) @_ZN5Yosys3logEPKcz(ptr noundef @.str.40)
  call void (ptr, ...) @_ZN5Yosys3logEPKcz(ptr noundef @.str.3)
  call void (ptr, ...) @_ZN5Yosys3logEPKcz(ptr noundef @.str.41)
  call void (ptr, ...) @_ZN5Yosys3logEPKcz(ptr noundef @.str.42)
  call void (ptr, ...) @_ZN5Yosys3logEPKcz(ptr noundef @.str.3)
  call void (ptr, ...) @_ZN5Yosys3logEPKcz(ptr noundef @.str.43)
  call void (ptr, ...) @_ZN5Yosys3logEPKcz(ptr noundef @.str.44)
  call void (ptr, ...) @_ZN5Yosys3logEPKcz(ptr noundef @.str.3)
  call void (ptr, ...) @_ZN5Yosys3logEPKcz(ptr noundef @.str.45)
  call void (ptr, ...) @_ZN5Yosys3logEPKcz(ptr noundef @.str.46)
  call void (ptr, ...) @_ZN5Yosys3logEPKcz(ptr noundef @.str.47)
  call void (ptr, ...) @_ZN5Yosys3logEPKcz(ptr noundef @.str.3)
  call void (ptr, ...) @_ZN5Yosys3logEPKcz(ptr noundef @.str.48)
  call void (ptr, ...) @_ZN5Yosys3logEPKcz(ptr noundef @.str.49)
  call void (ptr, ...) @_ZN5Yosys3logEPKcz(ptr noundef @.str.3)
  call void (ptr, ...) @_ZN5Yosys3logEPKcz(ptr noundef @.str.50)
  call void (ptr, ...) @_ZN5Yosys3logEPKcz(ptr noundef @.str.51)
  call void (ptr, ...) @_ZN5Yosys3logEPKcz(ptr noundef @.str.3)
  call void (ptr, ...) @_ZN5Yosys3logEPKcz(ptr noundef @.str.52)
  call void (ptr, ...) @_ZN5Yosys3logEPKcz(ptr noundef @.str.53)
  call void (ptr, ...) @_ZN5Yosys3logEPKcz(ptr noundef @.str.54)
  call void (ptr, ...) @_ZN5Yosys3logEPKcz(ptr noundef @.str.55)
  call void (ptr, ...) @_ZN5Yosys3logEPKcz(ptr noundef @.str.3)
  call void (ptr, ...) @_ZN5Yosys3logEPKcz(ptr noundef @.str.3)
  call void (ptr, ...) @_ZN5Yosys3logEPKcz(ptr noundef @.str.56)
  call void @_ZN5Yosys10ScriptPass11help_scriptEv(ptr noundef nonnull align 8 dereferenceable(184) %3)
  call void (ptr, ...) @_ZN5Yosys3logEPKcz(ptr noundef @.str.3)
  ret void
}